target datalayout = "e-m:e-p270:32:32-p271:32:32-p272:64:64-i64:64-i128:128-f80:128-n8:16:32:64-S128"
target triple = "x86_64-pc-linux-gnu"

%"class.g2o::CommandArgs" = type { ptr, %"class.std::vector", %"class.std::vector", %"class.std::vector", %"class.std::__cxx11::basic_string", %"class.std::__cxx11::basic_string" }
%"class.std::vector" = type { %"struct.std::_Vector_base" }
%"struct.std::_Vector_base" = type { %"struct.std::_Vector_base<g2o::CommandArgs::CommandArgument, std::allocator<g2o::CommandArgs::CommandArgument>>::_Vector_impl" }
%"struct.std::_Vector_base<g2o::CommandArgs::CommandArgument, std::allocator<g2o::CommandArgs::CommandArgument>>::_Vector_impl" = type { %"struct.std::_Vector_base<g2o::CommandArgs::CommandArgument, std::allocator<g2o::CommandArgs::CommandArgument>>::_Vector_impl_data" }
%"struct.std::_Vector_base<g2o::CommandArgs::CommandArgument, std::allocator<g2o::CommandArgs::CommandArgument>>::_Vector_impl_data" = type { ptr, ptr, ptr }
%"class.std::__cxx11::basic_string" = type { %"struct.std::__cxx11::basic_string<char>::_Alloc_hider", i64, %union.anon }
%"struct.std::__cxx11::basic_string<char>::_Alloc_hider" = type { ptr }
%union.anon = type { i64, [8 x i8] }
%"class.__gnu_cxx::__normal_iterator" = type { ptr }
%"struct.g2o::CommandArgs::CommandArgument" = type <{ %"class.std::__cxx11::basic_string", %"class.std::__cxx11::basic_string", i32, [4 x i8], ptr, i8, i8, [6 x i8] }>

; Function Attrs: mustprogress uwtable
define linkonce_odr void @_ZN3g2o11CommandArgs15CommandArgumentC2ERKS1_(ptr noundef nonnull align 8 dereferenceable(82) %0, ptr noundef nonnull align 8 dereferenceable(82) %1) unnamed_addr #6 comdat align 2 personality ptr @__gxx_personality_v0 {
  %3 = alloca ptr, align 8
  %4 = alloca ptr, align 8
  %5 = alloca ptr, align 8
  %6 = alloca i32, align 4
  store ptr %0, ptr %3, align 8
  store ptr %1, ptr %4, align 8
  %7 = load ptr, ptr %3, align 8
  %8 = getelementptr inbounds nuw %"struct.g2o::CommandArgs::CommandArgument", ptr %7, i32 0, i32 0
  %9 = load ptr, ptr %4, align 8
  %10 = getelementptr inbounds nuw %"struct.g2o::CommandArgs::CommandArgument", ptr %9, i32 0, i32 0
  call void @_ZNSt7__cxx1112basic_stringIcSt11char_traitsIcESaIcEEC1ERKS4_(ptr noundef nonnull align 8 dereferenceable(32) %8, ptr noundef nonnull align 8 dereferenceable(32) %10)
  %11 = getelementptr inbounds nuw %"struct.g2o::CommandArgs::CommandArgument", ptr %7, i32 0, i32 1
  %12 = load ptr, ptr %4, align 8
  %13 = getelementptr inbounds nuw %"struct.g2o::CommandArgs::CommandArgument", ptr %12, i32 0, i32 1
  invoke void @_ZNSt7__cxx1112basic_stringIcSt11char_traitsIcESaIcEEC1ERKS4_(ptr noundef nonnull align 8 dereferenceable(32) %11, ptr noundef nonnull align 8 dereferenceable(32) %13)
          to label %14 unwind label %18

14:                                               ; preds = %2
  %15 = getelementptr inbounds nuw %"struct.g2o::CommandArgs::CommandArgument", ptr %7, i32 0, i32 2
  %16 = load ptr, ptr %4, align 8
  %17 = getelementptr inbounds nuw %"struct.g2o::CommandArgs::CommandArgument", ptr %16, i32 0, i32 2
  call void @llvm.memcpy.p0.p0.i64(ptr align 8 %15, ptr align 8 %17, i64 18, i1 false)
  ret void

18:                                               ; preds = %2
  %19 = landingpad { ptr, i32 }
          cleanup
  %20 = extractvalue { ptr, i32 } %19, 0
  store ptr %20, ptr %5, align 8
  %21 = extractvalue { ptr, i32 } %19, 1
  store i32 %21, ptr %6, align 4
  call void @_ZNSt7__cxx1112basic_stringIcSt11char_traitsIcESaIcEED1Ev(ptr noundef nonnull align 8 dereferenceable(32) %8) #3
  br label %22

22:                                               ; preds = %18
  %23 = load ptr, ptr %5, align 8
  %24 = load i32, ptr %6, align 4
  %25 = insertvalue { ptr, i32 } poison, ptr %23, 0
  %26 = insertvalue { ptr, i32 } %25, i32 %24, 1
  resume { ptr, i32 } %26
}

; Function Attrs: mustprogress nounwind uwtable
define linkonce_odr void @_ZN9__gnu_cxx17__normal_iteratorIPN3g2o11CommandArgs15CommandArgumentESt6vectorIS3_SaIS3_EEEC2ERKS4_(ptr noundef nonnull align 8 dereferenceable(8) %0, ptr noundef nonnull align 8 dereferenceable(8) %1) unnamed_addr #4 comdat align 2 {
  %3 = alloca ptr, align 8
  %4 = alloca ptr, align 8
  store ptr %0, ptr %3, align 8
  store ptr %1, ptr %4, align 8
  %5 = load ptr, ptr %3, align 8
  %6 = getelementptr inbounds nuw %"class.__gnu_cxx::__normal_iterator", ptr %5, i32 0, i32 0
  %7 = load ptr, ptr %4, align 8
  %8 = load ptr, ptr %7, align 8
  store ptr %8, ptr %6, align 8
  ret void
}

; Function Attrs: mustprogress uwtable
define linkonce_odr void @_ZNSt15__new_allocatorIN3g2o11CommandArgs15CommandArgumentEE9constructIS2_JRKS2_EEEvPT_DpOT0_(ptr noundef nonnull align 1 dereferenceable(1) %0, ptr noundef %1, ptr noundef nonnull align 8 dereferenceable(82) %2) #6 comdat align 2 {
  %4 = alloca ptr, align 8
  %5 = alloca ptr, align 8
  %6 = alloca ptr, align 8
  store ptr %0, ptr %4, align 8
  store ptr %1, ptr %5, align 8
  store ptr %2, ptr %6, align 8
  %7 = load ptr, ptr %5, align 8
  %8 = load ptr, ptr %6, align 8
  call void @_ZN3g2o11CommandArgs15CommandArgumentC2ERKS1_(ptr noundef nonnull align 8 dereferenceable(82) %7, ptr noundef nonnull align 8 dereferenceable(82) %8)
  ret void
}

; Function Attrs: mustprogress nounwind uwtable
define linkonce_odr ptr @_ZNSt6vectorIN3g2o11CommandArgs15CommandArgumentESaIS2_EE3endEv(ptr noundef nonnull align 8 dereferenceable(24) %0) #4 comdat align 2 {
  %2 = alloca %"class.__gnu_cxx::__normal_iterator", align 8
  %3 = alloca ptr, align 8
  store ptr %0, ptr %3, align 8
  %4 = load ptr, ptr %3, align 8
  %5 = getelementptr inbounds nuw %"struct.std::_Vector_base", ptr %4, i32 0, i32 0
  %6 = getelementptr inbounds nuw %"struct.std::_Vector_base<g2o::CommandArgs::CommandArgument, std::allocator<g2o::CommandArgs::CommandArgument>>::_Vector_impl_data", ptr %5, i32 0, i32 1
  call void @_ZN9__gnu_cxx17__normal_iteratorIPN3g2o11CommandArgs15CommandArgumentESt6vectorIS3_SaIS3_EEEC2ERKS4_(ptr noundef nonnull align 8 dereferenceable(8) %2, ptr noundef nonnull align 8 dereferenceable(8) %6) #3
  %7 = getelementptr inbounds nuw %"class.__gnu_cxx::__normal_iterator", ptr %2, i32 0, i32 0
  %8 = load ptr, ptr %7, align 8
  ret ptr %8
}

; Function Attrs: mustprogress uwtable
define linkonce_odr void @_ZNSt16allocator_traitsISaIN3g2o11CommandArgs15CommandArgumentEEE9constructIS2_JRKS2_EEEvRS3_PT_DpOT0_(ptr noundef nonnull align 1 dereferenceable(1) %0, ptr noundef %1, ptr noundef nonnull align 8 dereferenceable(82) %2) #6 comdat align 2 {
  %4 = alloca ptr, align 8
  %5 = alloca ptr, align 8
  %6 = alloca ptr, align 8
  store ptr %0, ptr %4, align 8
  store ptr %1, ptr %5, align 8
  store ptr %2, ptr %6, align 8
  %7 = load ptr, ptr %4, align 8
  %8 = load ptr, ptr %5, align 8
  %9 = load ptr, ptr %6, align 8
  call void @_ZNSt15__new_allocatorIN3g2o11CommandArgs15CommandArgumentEE9constructIS2_JRKS2_EEEvPT_DpOT0_(ptr noundef nonnull align 1 dereferenceable(1) %7, ptr noundef %8, ptr noundef nonnull align 8 dereferenceable(82) %9)
  ret void
}

; Function Attrs: mustprogress nounwind uwtable
define linkonce_odr void @_ZN3g2o11CommandArgs15CommandArgumentD2Ev(ptr noundef nonnull align 8 dereferenceable(82) %0) unnamed_addr #4 comdat align 2 {
  %2 = alloca ptr, align 8
  store ptr %0, ptr %2, align 8
  %3 = load ptr, ptr %2, align 8
  %4 = getelementptr inbounds nuw %"struct.g2o::CommandArgs::CommandArgument", ptr %3, i32 0, i32 1
  call void @_ZNSt7__cxx1112basic_stringIcSt11char_traitsIcESaIcEED1Ev(ptr noundef nonnull align 8 dereferenceable(32) %4) #3
  %5 = getelementptr inbounds nuw %"struct.g2o::CommandArgs::CommandArgument", ptr %3, i32 0, i32 0
  call void @_ZNSt7__cxx1112basic_stringIcSt11char_traitsIcESaIcEED1Ev(ptr noundef nonnull align 8 dereferenceable(32) %5) #3
  ret void
}

; Function Attrs: mustprogress uwtable
define linkonce_odr void @_ZNSt6vectorIN3g2o11CommandArgs15CommandArgumentESaIS2_EE9push_backERKS2_(ptr noundef nonnull align 8 dereferenceable(24) %0, ptr noundef nonnull align 8 dereferenceable(82) %1) #6 comdat align 2 {
  %3 = alloca ptr, align 8
  %4 = alloca ptr, align 8
  %5 = alloca %"class.__gnu_cxx::__normal_iterator", align 8
  store ptr %0, ptr %3, align 8
  store ptr %1, ptr %4, align 8
  %6 = load ptr, ptr %3, align 8
  %7 = getelementptr inbounds nuw %"struct.std::_Vector_base", ptr %6, i32 0, i32 0
  %8 = getelementptr inbounds nuw %"struct.std::_Vector_base<g2o::CommandArgs::CommandArgument, std::allocator<g2o::CommandArgs::CommandArgument>>::_Vector_impl_data", ptr %7, i32 0, i32 1
  %9 = load ptr, ptr %8, align 8
  %10 = getelementptr inbounds nuw %"struct.std::_Vector_base", ptr %6, i32 0, i32 0
  %11 = getelementptr inbounds nuw %"struct.std::_Vector_base<g2o::CommandArgs::CommandArgument, std::allocator<g2o::CommandArgs::CommandArgument>>::_Vector_impl_data", ptr %10, i32 0, i32 2
  %12 = load ptr, ptr %11, align 8
  %13 = icmp ne ptr %9, %12
  br i1 %13, label %14, label %24

14:                                               ; preds = %2
  %15 = getelementptr inbounds nuw %"struct.std::_Vector_base", ptr %6, i32 0, i32 0
  %16 = getelementptr inbounds nuw %"struct.std::_Vector_base", ptr %6, i32 0, i32 0
  %17 = getelementptr inbounds nuw %"struct.std::_Vector_base<g2o::CommandArgs::CommandArgument, std::allocator<g2o::CommandArgs::CommandArgument>>::_Vector_impl_data", ptr %16, i32 0, i32 1
  %18 = load ptr, ptr %17, align 8
  %19 = load ptr, ptr %4, align 8
  call void @_ZNSt16allocator_traitsISaIN3g2o11CommandArgs15CommandArgumentEEE9constructIS2_JRKS2_EEEvRS3_PT_DpOT0_(ptr noundef nonnull align 1 dereferenceable(1) %15, ptr noundef %18, ptr noundef nonnull align 8 dereferenceable(82) %19)
  %20 = getelementptr inbounds nuw %"struct.std::_Vector_base", ptr %6, i32 0, i32 0
  %21 = getelementptr inbounds nuw %"struct.std::_Vector_base<g2o::CommandArgs::CommandArgument, std::allocator<g2o::CommandArgs::CommandArgument>>::_Vector_impl_data", ptr %20, i32 0, i32 1
  %22 = load ptr, ptr %21, align 8
  %23 = getelementptr inbounds %"struct.g2o::CommandArgs::CommandArgument", ptr %22, i32 1
  store ptr %23, ptr %21, align 8
  br label %30

24:                                               ; preds = %2
  %25 = call ptr @_ZNSt6vectorIN3g2o11CommandArgs15CommandArgumentESaIS2_EE3endEv(ptr noundef nonnull align 8 dereferenceable(24) %6) #3
  %26 = getelementptr inbounds nuw %"class.__gnu_cxx::__normal_iterator", ptr %5, i32 0, i32 0
  store ptr %25, ptr %26, align 8
  %27 = load ptr, ptr %4, align 8
  %28 = getelementptr inbounds nuw %"class.__gnu_cxx::__normal_iterator", ptr %5, i32 0, i32 0
  %29 = load ptr, ptr %28, align 8
  call void @_ZNSt6vectorIN3g2o11CommandArgs15CommandArgumentESaIS2_EE17_M_realloc_insertIJRKS2_EEEvN9__gnu_cxx17__normal_iteratorIPS2_S4_EEDpOT_(ptr noundef nonnull align 8 dereferenceable(24) %6, ptr %29, ptr noundef nonnull align 8 dereferenceable(82) %27)
  br label %30

30:                                               ; preds = %24, %14
  ret void
}

; Function Attrs: mustprogress uwtable
define void @_ZN3g2o11CommandArgs13paramLeftOverERKNSt7__cxx1112basic_stringIcSt11char_traitsIcESaIcEEERS6_S8_S8_b(ptr noundef nonnull align 8 dereferenceable(144) %0, ptr noundef nonnull align 8 dereferenceable(32) %1, ptr noundef nonnull align 8 dereferenceable(32) %2, ptr noundef nonnull align 8 dereferenceable(32) %3, ptr noundef nonnull align 8 dereferenceable(32) %4, i1 noundef zeroext %5) #6 align 2 personality ptr @__gxx_personality_v0 {
  %7 = alloca ptr, align 8
  %8 = alloca ptr, align 8
  %9 = alloca ptr, align 8
  %10 = alloca ptr, align 8
  %11 = alloca ptr, align 8
  %12 = alloca i8, align 1
  %13 = alloca %"struct.g2o::CommandArgs::CommandArgument", align 8
  %14 = alloca ptr, align 8
  %15 = alloca i32, align 4
  store ptr %0, ptr %7, align 8
  store ptr %1, ptr %8, align 8
  store ptr %2, ptr %9, align 8
  store ptr %3, ptr %10, align 8
  store ptr %4, ptr %11, align 8
  %16 = zext i1 %5 to i8
  store i8 %16, ptr %12, align 1
  %17 = load ptr, ptr %7, align 8
  call void @_ZN3g2o11CommandArgs15CommandArgumentC2Ev(ptr noundef nonnull align 8 dereferenceable(82) %13)
  %18 = load ptr, ptr %8, align 8
  %19 = getelementptr inbounds nuw %"struct.g2o::CommandArgs::CommandArgument", ptr %13, i32 0, i32 0
  %20 = invoke noundef nonnull align 8 dereferenceable(32) ptr @_ZNSt7__cxx1112basic_stringIcSt11char_traitsIcESaIcEEaSERKS4_(ptr noundef nonnull align 8 dereferenceable(32) %19, ptr noundef nonnull align 8 dereferenceable(32) %18)
          to label %21 unwind label %43

21:                                               ; preds = %6
  %22 = load ptr, ptr %11, align 8
  %23 = getelementptr inbounds nuw %"struct.g2o::CommandArgs::CommandArgument", ptr %13, i32 0, i32 1
  %24 = invoke noundef nonnull align 8 dereferenceable(32) ptr @_ZNSt7__cxx1112basic_stringIcSt11char_traitsIcESaIcEEaSERKS4_(ptr noundef nonnull align 8 dereferenceable(32) %23, ptr noundef nonnull align 8 dereferenceable(32) %22)
          to label %25 unwind label %43

25:                                               ; preds = %21
  %26 = getelementptr inbounds nuw %"struct.g2o::CommandArgs::CommandArgument", ptr %13, i32 0, i32 2
  store i32 3, ptr %26, align 8
  %27 = load ptr, ptr %9, align 8
  %28 = getelementptr inbounds nuw %"struct.g2o::CommandArgs::CommandArgument", ptr %13, i32 0, i32 4
  store ptr %27, ptr %28, align 8
  %29 = getelementptr inbounds nuw %"struct.g2o::CommandArgs::CommandArgument", ptr %13, i32 0, i32 5
  store i8 0, ptr %29, align 8
  %30 = load i8, ptr %12, align 1
  %31 = trunc i8 %30 to i1
  %32 = getelementptr inbounds nuw %"struct.g2o::CommandArgs::CommandArgument", ptr %13, i32 0, i32 6
  %33 = zext i1 %31 to i8
  store i8 %33, ptr %32, align 1
  %34 = load ptr, ptr %10, align 8
  %35 = load ptr, ptr %9, align 8
  %36 = invoke noundef nonnull align 8 dereferenceable(32) ptr @_ZNSt7__cxx1112basic_stringIcSt11char_traitsIcESaIcEEaSERKS4_(ptr noundef nonnull align 8 dereferenceable(32) %35, ptr noundef nonnull align 8 dereferenceable(32) %34)
          to label %37 unwind label %43

37:                                               ; preds = %25
  %38 = load i8, ptr %12, align 1
  %39 = trunc i8 %38 to i1
  br i1 %39, label %40, label %47

40:                                               ; preds = %37
  %41 = getelementptr inbounds nuw %"class.g2o::CommandArgs", ptr %17, i32 0, i32 3
  invoke void @_ZNSt6vectorIN3g2o11CommandArgs15CommandArgumentESaIS2_EE9push_backERKS2_(ptr noundef nonnull align 8 dereferenceable(24) %41, ptr noundef nonnull align 8 dereferenceable(82) %13)
          to label %42 unwind label %43

42:                                               ; preds = %40
  br label %50

43:                                               ; preds = %47, %40, %25, %21, %6
  %44 = landingpad { ptr, i32 }
          cleanup
  %45 = extractvalue { ptr, i32 } %44, 0
  store ptr %45, ptr %14, align 8
  %46 = extractvalue { ptr, i32 } %44, 1
  store i32 %46, ptr %15, align 4
  call void @_ZN3g2o11CommandArgs15CommandArgumentD2Ev(ptr noundef nonnull align 8 dereferenceable(82) %13) #3
  br label %51

47:                                               ; preds = %37
  %48 = getelementptr inbounds nuw %"class.g2o::CommandArgs", ptr %17, i32 0, i32 2
  invoke void @_ZNSt6vectorIN3g2o11CommandArgs15CommandArgumentESaIS2_EE9push_backERKS2_(ptr noundef nonnull align 8 dereferenceable(24) %48, ptr noundef nonnull align 8 dereferenceable(82) %13)
          to label %49 unwind label %43

49:                                               ; preds = %47
  br label %50

50:                                               ; preds = %49, %42
  call void @_ZN3g2o11CommandArgs15CommandArgumentD2Ev(ptr noundef nonnull align 8 dereferenceable(82) %13) #3
  ret void

51:                                               ; preds = %43
  %52 = load ptr, ptr %14, align 8
  %53 = load i32, ptr %15, align 4
  %54 = insertvalue { ptr, i32 } poison, ptr %52, 0
  %55 = insertvalue { ptr, i32 } %54, i32 %53, 1
  resume { ptr, i32 } %55
}