; Function Attrs: mustprogress uwtable
define void @_ZN3g2o11CommandArgs13paramLeftOverERKNSt7__cxx1112basic_stringIcSt11char_traitsIcESaIcEEERS6_S8_S8_b(ptr noundef nonnull align 8 dereferenceable(144) %0, ptr noundef nonnull align 8 dereferenceable(32) %1, ptr noundef nonnull align 8 dereferenceable(32) %2, ptr noundef nonnull align 8 dereferenceable(32) %3, ptr noundef nonnull align 8 dereferenceable(32) %4, i1 noundef zeroext %5) local_unnamed_addr #5 align 2 personality ptr @__gxx_personality_v0 {
  %7 = alloca %"struct.g2o::CommandArgs::CommandArgument", align 8
  %8 = zext i1 %5 to i8
  call void @_ZN3g2o11CommandArgs15CommandArgumentC2Ev(ptr noundef nonnull align 8 dereferenceable(82) %7)
  %9 = invoke noundef nonnull align 8 dereferenceable(32) ptr @_ZNSt7__cxx1112basic_stringIcSt11char_traitsIcESaIcEEaSERKS4_(ptr noundef nonnull align 8 dereferenceable(32) %7, ptr noundef nonnull align 8 dereferenceable(32) %1)
          to label %10 unwind label %29

10:                                               ; preds = %6
  %11 = getelementptr inbounds nuw i8, ptr %7, i64 32
  %12 = invoke noundef nonnull align 8 dereferenceable(32) ptr @_ZNSt7__cxx1112basic_stringIcSt11char_traitsIcESaIcEEaSERKS4_(ptr noundef nonnull align 8 dereferenceable(32) %11, ptr noundef nonnull align 8 dereferenceable(32) %4)
          to label %13 unwind label %29

13:                                               ; preds = %10
  %14 = getelementptr inbounds nuw i8, ptr %7, i64 64
  store i32 3, ptr %14, align 8
  %15 = getelementptr inbounds nuw i8, ptr %7, i64 72
  store ptr %2, ptr %15, align 8
  %16 = getelementptr inbounds nuw i8, ptr %7, i64 80
  store i8 0, ptr %16, align 8
  %17 = getelementptr inbounds nuw i8, ptr %7, i64 81
  store i8 %8, ptr %17, align 1
  %18 = invoke noundef nonnull align 8 dereferenceable(32) ptr @_ZNSt7__cxx1112basic_stringIcSt11char_traitsIcESaIcEEaSERKS4_(ptr noundef nonnull align 8 dereferenceable(32) %2, ptr noundef nonnull align 8 dereferenceable(32) %3)
          to label %19 unwind label %29

19:                                               ; preds = %13
  br i1 %5, label %20, label %32

20:                                               ; preds = %19
  %21 = getelementptr inbounds i8, ptr %0, i64 64
  %22 = load ptr, ptr %21, align 8
  %23 = getelementptr inbounds i8, ptr %0, i64 72
  %24 = load ptr, ptr %23, align 8
  %.not.i = icmp eq ptr %22, %24
  br i1 %.not.i, label %.invoke, label %25

25:                                               ; preds = %20
  invoke void @_ZNSt7__cxx1112basic_stringIcSt11char_traitsIcESaIcEEC1ERKS4_(ptr noundef nonnull align 8 dereferenceable(32) %22, ptr noundef nonnull align 8 dereferenceable(32) %7)
          to label %.noexc unwind label %29

.noexc:                                           ; preds = %25
  %26 = getelementptr inbounds nuw i8, ptr %22, i64 32
  invoke void @_ZNSt7__cxx1112basic_stringIcSt11char_traitsIcESaIcEEC1ERKS4_(ptr noundef nonnull align 8 dereferenceable(32) %26, ptr noundef nonnull align 8 dereferenceable(32) %11)
          to label %_ZNSt6vectorIN3g2o11CommandArgs15CommandArgumentESaIS2_EE9push_backERKS2_.exit.sink.split unwind label %27

27:                                               ; preds = %.noexc
  %28 = landingpad { ptr, i32 }
          cleanup
  call void @_ZNSt7__cxx1112basic_stringIcSt11char_traitsIcESaIcEED1Ev(ptr noundef nonnull align 8 dereferenceable(32) %22) #20
  br label %.body

29:                                               ; preds = %.invoke, %37, %25, %13, %10, %6
  %30 = landingpad { ptr, i32 }
          cleanup
  br label %.body

.body:                                            ; preds = %29, %39, %27
  %eh.lpad-body = phi { ptr, i32 } [ %28, %27 ], [ %30, %29 ], [ %40, %39 ]
  %31 = getelementptr inbounds nuw i8, ptr %7, i64 32
  call void @_ZNSt7__cxx1112basic_stringIcSt11char_traitsIcESaIcEED1Ev(ptr noundef nonnull align 8 dereferenceable(32) %31) #20
  call void @_ZNSt7__cxx1112basic_stringIcSt11char_traitsIcESaIcEED1Ev(ptr noundef nonnull align 8 dereferenceable(32) %7) #20
  resume { ptr, i32 } %eh.lpad-body

32:                                               ; preds = %19
  %33 = getelementptr inbounds i8, ptr %0, i64 40
  %34 = load ptr, ptr %33, align 8
  %35 = getelementptr inbounds i8, ptr %0, i64 48
  %36 = load ptr, ptr %35, align 8
  %.not.i10 = icmp eq ptr %34, %36
  br i1 %.not.i10, label %.invoke, label %37

37:                                               ; preds = %32
  invoke void @_ZNSt7__cxx1112basic_stringIcSt11char_traitsIcESaIcEEC1ERKS4_(ptr noundef nonnull align 8 dereferenceable(32) %34, ptr noundef nonnull align 8 dereferenceable(32) %7)
          to label %.noexc12 unwind label %29

.noexc12:                                         ; preds = %37
  %38 = getelementptr inbounds nuw i8, ptr %34, i64 32
  invoke void @_ZNSt7__cxx1112basic_stringIcSt11char_traitsIcESaIcEEC1ERKS4_(ptr noundef nonnull align 8 dereferenceable(32) %38, ptr noundef nonnull align 8 dereferenceable(32) %11)
          to label %_ZNSt6vectorIN3g2o11CommandArgs15CommandArgumentESaIS2_EE9push_backERKS2_.exit.sink.split unwind label %39

39:                                               ; preds = %.noexc12
  %40 = landingpad { ptr, i32 }
          cleanup
  call void @_ZNSt7__cxx1112basic_stringIcSt11char_traitsIcESaIcEED1Ev(ptr noundef nonnull align 8 dereferenceable(32) %34) #20
  br label %.body

.invoke:                                          ; preds = %32, %20
  %.sink = phi i64 [ 56, %20 ], [ 32, %32 ]
  %41 = phi ptr [ %22, %20 ], [ %34, %32 ]
  %42 = getelementptr inbounds nuw i8, ptr %0, i64 %.sink
  invoke void @_ZNSt6vectorIN3g2o11CommandArgs15CommandArgumentESaIS2_EE17_M_realloc_insertIJRKS2_EEEvN9__gnu_cxx17__normal_iteratorIPS2_S4_EEDpOT_(ptr noundef nonnull align 8 dereferenceable(24) %42, ptr %41, ptr noundef nonnull align 8 dereferenceable(82) %7)
          to label %_ZNSt6vectorIN3g2o11CommandArgs15CommandArgumentESaIS2_EE9push_backERKS2_.exit unwind label %29

_ZNSt6vectorIN3g2o11CommandArgs15CommandArgumentESaIS2_EE9push_backERKS2_.exit.sink.split: ; preds = %.noexc12, %.noexc
  %.sink22 = phi ptr [ %22, %.noexc ], [ %34, %.noexc12 ]
  %.sink20 = phi ptr [ %21, %.noexc ], [ %33, %.noexc12 ]
  %43 = getelementptr inbounds nuw i8, ptr %.sink22, i64 64
  call void @llvm.memcpy.p0.p0.i64(ptr noundef nonnull align 8 dereferenceable(18) %43, ptr noundef nonnull align 8 dereferenceable(18) %14, i64 18, i1 false)
  %44 = load ptr, ptr %.sink20, align 8
  %45 = getelementptr inbounds i8, ptr %44, i64 88
  store ptr %45, ptr %.sink20, align 8
  br label %_ZNSt6vectorIN3g2o11CommandArgs15CommandArgumentESaIS2_EE9push_backERKS2_.exit

_ZNSt6vectorIN3g2o11CommandArgs15CommandArgumentESaIS2_EE9push_backERKS2_.exit: ; preds = %_ZNSt6vectorIN3g2o11CommandArgs15CommandArgumentESaIS2_EE9push_backERKS2_.exit.sink.split, %.invoke
  call void @_ZNSt7__cxx1112basic_stringIcSt11char_traitsIcESaIcEED1Ev(ptr noundef nonnull align 8 dereferenceable(32) %11) #20
  call void @_ZNSt7__cxx1112basic_stringIcSt11char_traitsIcESaIcEED1Ev(ptr noundef nonnull align 8 dereferenceable(32) %7) #20
  ret void
}